target datalayout = "e-m:e-p270:32:32-p271:32:32-p272:64:64-i64:64-i128:128-f80:128-n8:16:32:64-S128"
target triple = "x86_64-pc-linux-gnu"

%"class.metaspace::FreeChunkList" = type <{ ptr, ptr, %"class.metaspace::AbstractCounter", [4 x i8] }>
%"class.metaspace::AbstractCounter" = type { i32 }
%"class.metaspace::FreeChunkListVector" = type { [15 x %"class.metaspace::FreeChunkList"] }

; Function Attrs: mustprogress nounwind uwtable
define linkonce_odr hidden noundef i32 @_ZNK9metaspace15AbstractCounterIjE3getEv(ptr noundef nonnull align 4 dereferenceable(4) %0) #1 comdat align 2 {
  %2 = alloca ptr, align 8
  store ptr %0, ptr %2, align 8
  %3 = load ptr, ptr %2, align 8
  %4 = getelementptr inbounds %"class.metaspace::AbstractCounter", ptr %3, i32 0, i32 0
  %5 = load i32, ptr %4, align 4
  ret i32 %5
}

; Function Attrs: mustprogress nounwind uwtable
define linkonce_odr hidden noundef i32 @_ZNK9metaspace13FreeChunkList10num_chunksEv(ptr noundef nonnull align 8 dereferenceable(20) %0) #1 comdat align 2 {
  %2 = alloca ptr, align 8
  store ptr %0, ptr %2, align 8
  %3 = load ptr, ptr %2, align 8
  %4 = getelementptr inbounds %"class.metaspace::FreeChunkList", ptr %3, i32 0, i32 2
  %5 = call noundef i32 @_ZNK9metaspace15AbstractCounterIjE3getEv(ptr noundef nonnull align 4 dereferenceable(4) %4)
  ret i32 %5
}

; Function Attrs: mustprogress nounwind uwtable
define linkonce_odr hidden noundef ptr @_ZNK9metaspace19FreeChunkListVector14list_for_levelEa(ptr noundef nonnull align 8 dereferenceable(360) %0, i8 noundef signext %1) #1 comdat align 2 {
  %3 = alloca ptr, align 8
  %4 = alloca i8, align 1
  store ptr %0, ptr %3, align 8
  store i8 %1, ptr %4, align 1
  %5 = load ptr, ptr %3, align 8
  %6 = getelementptr inbounds %"class.metaspace::FreeChunkListVector", ptr %5, i32 0, i32 0
  %7 = getelementptr inbounds [15 x %"class.metaspace::FreeChunkList"], ptr %6, i64 0, i64 0
  %8 = load i8, ptr %4, align 1
  %9 = sext i8 %8 to i32
  %10 = sext i32 %9 to i64
  %11 = getelementptr inbounds %"class.metaspace::FreeChunkList", ptr %7, i64 %10
  ret ptr %11
}

; Function Attrs: mustprogress nounwind uwtable
define hidden noundef i32 @_ZNK9metaspace19FreeChunkListVector10num_chunksEv(ptr noundef nonnull align 8 dereferenceable(360) %0) #1 align 2 {
  %2 = alloca ptr, align 8
  %3 = alloca i32, align 4
  %4 = alloca i8, align 1
  store ptr %0, ptr %2, align 8
  %5 = load ptr, ptr %2, align 8
  store i32 0, ptr %3, align 4
  store i8 0, ptr %4, align 1
  br label %6

6:                                                ; preds = %16, %1
  %7 = load i8, ptr %4, align 1
  %8 = sext i8 %7 to i32
  %9 = icmp sle i32 %8, 14
  br i1 %9, label %10, label %19

10:                                               ; preds = %6
  %11 = load i8, ptr %4, align 1
  %12 = call noundef ptr @_ZNK9metaspace19FreeChunkListVector14list_for_levelEa(ptr noundef nonnull align 8 dereferenceable(360) %5, i8 noundef signext %11)
  %13 = call noundef i32 @_ZNK9metaspace13FreeChunkList10num_chunksEv(ptr noundef nonnull align 8 dereferenceable(20) %12)
  %14 = load i32, ptr %3, align 4
  %15 = add nsw i32 %14, %13
  store i32 %15, ptr %3, align 4
  br label %16

16:                                               ; preds = %10
  %17 = load i8, ptr %4, align 1
  %18 = add i8 %17, 1
  store i8 %18, ptr %4, align 1
  br label %6, !llvm.loop !11

19:                                               ; preds = %6
  %20 = load i32, ptr %3, align 4
  ret i32 %20
}