; Function Attrs: mustprogress nofree norecurse nosync nounwind willreturn memory(argmem: read) uwtable
define hidden noundef i32 @_ZNK9metaspace19FreeChunkListVector10num_chunksEv(ptr nocapture noundef nonnull readonly align 8 dereferenceable(360) %0) local_unnamed_addr #3 align 2 {
  br label %2

2:                                                ; preds = %1, %2
  %indvars.iv = phi i64 [ 0, %1 ], [ %indvars.iv.next, %2 ]
  %.056 = phi i32 [ 0, %1 ], [ %5, %2 ]
  %3 = getelementptr inbounds %"class.metaspace::FreeChunkList", ptr %0, i64 %indvars.iv, i32 2
  %4 = load i32, ptr %3, align 8
  %5 = add nsw i32 %4, %.056
  %indvars.iv.next = add nuw nsw i64 %indvars.iv, 1
  %exitcond.not = icmp eq i64 %indvars.iv.next, 15
  br i1 %exitcond.not, label %6, label %2, !llvm.loop !11

6:                                                ; preds = %2
  ret i32 %5
}